target datalayout = "e-m:e-p270:32:32-p271:32:32-p272:64:64-i64:64-i128:128-f80:128-n8:16:32:64-S128"
target triple = "x86_64-pc-linux-gnu"

%struct.libpq_source = type { %struct.rewind_source, ptr, i32, [1000 x %struct.fetch_range_request], %struct.StringInfoData, %struct.StringInfoData, %struct.StringInfoData }
%struct.rewind_source = type { ptr, ptr, ptr, ptr, ptr, ptr, ptr }
%struct.fetch_range_request = type { ptr, i64, i64 }
%struct.StringInfoData = type { ptr, i32, i32, i32 }

@.str.20 = private unnamed_addr constant [30 x i8] c"could not fetch file list: %s\00", align 1
@.str.21 = private unnamed_addr constant [47 x i8] c"unexpected result set while fetching file list\00", align 1
@.str.22 = private unnamed_addr constant [2 x i8] c"t\00", align 1

; Function Attrs: inlinehint nounwind willreturn memory(read) uwtable
define available_externally i64 @atoll(ptr noundef nonnull %0) #6 {
  %2 = alloca ptr, align 8
  store ptr %0, ptr %2, align 8
  %3 = load ptr, ptr %2, align 8
  %4 = call i64 @strtoll(ptr noundef %3, ptr noundef null, i32 noundef 10) #10
  ret i64 %4
}

; Function Attrs: nounwind uwtable
define internal void @libpq_traverse_files(ptr noundef %0, ptr noundef %1) #0 {
  %3 = alloca ptr, align 8
  %4 = alloca ptr, align 8
  %5 = alloca ptr, align 8
  %6 = alloca ptr, align 8
  %7 = alloca ptr, align 8
  %8 = alloca i32, align 4
  %9 = alloca ptr, align 8
  %10 = alloca i64, align 8
  %11 = alloca i8, align 1
  %12 = alloca ptr, align 8
  %13 = alloca i32, align 4
  %14 = alloca i32, align 4
  store ptr %0, ptr %3, align 8
  store ptr %1, ptr %4, align 8
  call void @llvm.lifetime.start.p0(i64 8, ptr %5) #10
  %15 = load ptr, ptr %3, align 8
  %16 = getelementptr inbounds nuw %struct.libpq_source, ptr %15, i32 0, i32 1
  %17 = load ptr, ptr %16, align 8
  store ptr %17, ptr %5, align 8
  call void @llvm.lifetime.start.p0(i64 8, ptr %6) #10
  call void @llvm.lifetime.start.p0(i64 8, ptr %7) #10
  call void @llvm.lifetime.start.p0(i64 4, ptr %8) #10
  store ptr @.str.19, ptr %7, align 8
  %18 = load ptr, ptr %5, align 8
  %19 = load ptr, ptr %7, align 8
  %20 = call ptr @PQexec(ptr noundef %18, ptr noundef %19)
  store ptr %20, ptr %6, align 8
  %21 = load ptr, ptr %6, align 8
  %22 = call i32 @PQresultStatus(ptr noundef %21)
  %23 = icmp ne i32 %22, 2
  br i1 %23, label %24, label %30

24:                                               ; preds = %2
  br label %25

25:                                               ; preds = %24
  %26 = load ptr, ptr %6, align 8
  %27 = call ptr @PQresultErrorMessage(ptr noundef %26)
  call void (i32, i32, ptr, ...) @pg_log_generic(i32 noundef 4, i32 noundef 0, ptr noundef @.str.20, ptr noundef %27)
  call void @exit(i32 noundef 1) #11
  unreachable

28:                                               ; No predecessors!
  br label %29

29:                                               ; preds = %28
  br label %30

30:                                               ; preds = %29, %2
  %31 = load ptr, ptr %6, align 8
  %32 = call i32 @PQnfields(ptr noundef %31)
  %33 = icmp ne i32 %32, 4
  br i1 %33, label %34, label %38

34:                                               ; preds = %30
  br label %35

35:                                               ; preds = %34
  call void (i32, i32, ptr, ...) @pg_log_generic(i32 noundef 4, i32 noundef 0, ptr noundef @.str.21)
  call void @exit(i32 noundef 1) #11
  unreachable

36:                                               ; No predecessors!
  br label %37

37:                                               ; preds = %36
  br label %38

38:                                               ; preds = %37, %30
  store i32 0, ptr %8, align 4
  br label %39

39:                                               ; preds = %95, %38
  %40 = load i32, ptr %8, align 4
  %41 = load ptr, ptr %6, align 8
  %42 = call i32 @PQntuples(ptr noundef %41)
  %43 = icmp slt i32 %40, %42
  br i1 %43, label %44, label %98

44:                                               ; preds = %39
  call void @llvm.lifetime.start.p0(i64 8, ptr %9) #10
  call void @llvm.lifetime.start.p0(i64 8, ptr %10) #10
  call void @llvm.lifetime.start.p0(i64 1, ptr %11) #10
  call void @llvm.lifetime.start.p0(i64 8, ptr %12) #10
  call void @llvm.lifetime.start.p0(i64 4, ptr %13) #10
  %45 = load ptr, ptr %6, align 8
  %46 = load i32, ptr %8, align 4
  %47 = call i32 @PQgetisnull(ptr noundef %45, i32 noundef %46, i32 noundef 1)
  %48 = icmp ne i32 %47, 0
  br i1 %48, label %49, label %50

49:                                               ; preds = %44
  store i32 8, ptr %14, align 4
  br label %92

50:                                               ; preds = %44
  %51 = load ptr, ptr %6, align 8
  %52 = load i32, ptr %8, align 4
  %53 = call ptr @PQgetvalue(ptr noundef %51, i32 noundef %52, i32 noundef 0)
  store ptr %53, ptr %9, align 8
  %54 = load ptr, ptr %6, align 8
  %55 = load i32, ptr %8, align 4
  %56 = call ptr @PQgetvalue(ptr noundef %54, i32 noundef %55, i32 noundef 1)
  %57 = call i64 @atoll(ptr noundef %56) #12
  store i64 %57, ptr %10, align 8
  %58 = load ptr, ptr %6, align 8
  %59 = load i32, ptr %8, align 4
  %60 = call ptr @PQgetvalue(ptr noundef %58, i32 noundef %59, i32 noundef 2)
  %61 = call i32 @strcmp(ptr noundef %60, ptr noundef @.str.22) #12
  %62 = icmp eq i32 %61, 0
  %63 = zext i1 %62 to i8
  store i8 %63, ptr %11, align 1
  %64 = load ptr, ptr %6, align 8
  %65 = load i32, ptr %8, align 4
  %66 = call ptr @PQgetvalue(ptr noundef %64, i32 noundef %65, i32 noundef 3)
  store ptr %66, ptr %12, align 8
  %67 = load ptr, ptr %12, align 8
  %68 = getelementptr inbounds i8, ptr %67, i64 0
  %69 = load i8, ptr %68, align 1
  %70 = icmp ne i8 %69, 0
  br i1 %70, label %71, label %80

71:                                               ; preds = %50
  %72 = load ptr, ptr %12, align 8
  %73 = getelementptr inbounds i8, ptr %72, i64 0
  %74 = load i8, ptr %73, align 1
  %75 = sext i8 %74 to i32
  %76 = icmp eq i32 %75, 47
  br i1 %76, label %77, label %78

77:                                               ; preds = %71
  store i32 3, ptr %13, align 4
  br label %79

78:                                               ; preds = %71
  store i32 2, ptr %13, align 4
  br label %79

79:                                               ; preds = %78, %77
  br label %86

80:                                               ; preds = %50
  %81 = load i8, ptr %11, align 1, !range !4, !noundef !5
  %82 = trunc i8 %81 to i1
  br i1 %82, label %83, label %84

83:                                               ; preds = %80
  store i32 2, ptr %13, align 4
  br label %85

84:                                               ; preds = %80
  store i32 1, ptr %13, align 4
  br label %85

85:                                               ; preds = %84, %83
  br label %86

86:                                               ; preds = %85, %79
  %87 = load ptr, ptr %4, align 8
  %88 = load ptr, ptr %9, align 8
  %89 = load i32, ptr %13, align 4
  %90 = load i64, ptr %10, align 8
  %91 = load ptr, ptr %12, align 8
  call void %87(ptr noundef %88, i32 noundef %89, i64 noundef %90, ptr noundef %91)
  store i32 0, ptr %14, align 4
  br label %92

92:                                               ; preds = %86, %49
  call void @llvm.lifetime.end.p0(i64 4, ptr %13) #10
  call void @llvm.lifetime.end.p0(i64 8, ptr %12) #10
  call void @llvm.lifetime.end.p0(i64 1, ptr %11) #10
  call void @llvm.lifetime.end.p0(i64 8, ptr %10) #10
  call void @llvm.lifetime.end.p0(i64 8, ptr %9) #10
  %93 = load i32, ptr %14, align 4
  switch i32 %93, label %100 [
    i32 0, label %94
    i32 8, label %95
  ]

94:                                               ; preds = %92
  br label %95

95:                                               ; preds = %94, %92
  %96 = load i32, ptr %8, align 4
  %97 = add i32 %96, 1
  store i32 %97, ptr %8, align 4
  br label %39, !llvm.loop !6

98:                                               ; preds = %39
  %99 = load ptr, ptr %6, align 8
  call void @PQclear(ptr noundef %99)
  call void @llvm.lifetime.end.p0(i64 4, ptr %8) #10
  call void @llvm.lifetime.end.p0(i64 8, ptr %7) #10
  call void @llvm.lifetime.end.p0(i64 8, ptr %6) #10
  call void @llvm.lifetime.end.p0(i64 8, ptr %5) #10
  ret void

100:                                              ; preds = %92
  unreachable
}