; Function Attrs: nounwind uwtable
define internal void @libpq_traverse_files(ptr noundef readonly captures(none) %0, ptr noundef readonly captures(none) %1) #0 {
  %3 = getelementptr inbounds nuw i8, ptr %0, i64 56
  %4 = load ptr, ptr %3, align 8
  %5 = tail call ptr @PQexec(ptr noundef %4, ptr noundef nonnull @.str.19) #10
  %6 = tail call i32 @PQresultStatus(ptr noundef %5) #10
  %.not = icmp eq i32 %6, 2
  br i1 %.not, label %9, label %7

7:                                                ; preds = %2
  %8 = tail call ptr @PQresultErrorMessage(ptr noundef %5) #10
  tail call void (i32, i32, ptr, ...) @pg_log_generic(i32 noundef 4, i32 noundef 0, ptr noundef nonnull @.str.20, ptr noundef %8) #10
  tail call void @exit(i32 noundef 1) #11
  unreachable

9:                                                ; preds = %2
  %10 = tail call i32 @PQnfields(ptr noundef %5) #10
  %.not29 = icmp eq i32 %10, 4
  br i1 %.not29, label %.preheader, label %13

.preheader:                                       ; preds = %9
  %11 = tail call i32 @PQntuples(ptr noundef %5) #10
  %12 = icmp sgt i32 %11, 0
  br i1 %12, label %.lr.ph, label %._crit_edge

13:                                               ; preds = %9
  tail call void (i32, i32, ptr, ...) @pg_log_generic(i32 noundef 4, i32 noundef 0, ptr noundef nonnull @.str.21) #10
  tail call void @exit(i32 noundef 1) #11
  unreachable

.lr.ph:                                           ; preds = %.preheader, %29
  %.02732 = phi i32 [ %30, %29 ], [ 0, %.preheader ]
  %14 = tail call i32 @PQgetisnull(ptr noundef %5, i32 noundef %.02732, i32 noundef 1) #10
  %.not30 = icmp eq i32 %14, 0
  br i1 %.not30, label %sub_0, label %29

sub_0:                                            ; preds = %.lr.ph
  %15 = tail call ptr @PQgetvalue(ptr noundef %5, i32 noundef %.02732, i32 noundef 0) #10
  %16 = tail call ptr @PQgetvalue(ptr noundef %5, i32 noundef %.02732, i32 noundef 1) #10
  %17 = tail call i64 @strtoll(ptr noundef nonnull captures(none) %16, ptr noundef null, i32 noundef 10) #10
  %18 = tail call ptr @PQgetvalue(ptr noundef %5, i32 noundef %.02732, i32 noundef 2) #10
  %19 = load i8, ptr %18, align 1
  %.not33 = icmp eq i8 %19, 116
  br i1 %.not33, label %sub_1, label %.tail

sub_1:                                            ; preds = %sub_0
  %20 = getelementptr inbounds nuw i8, ptr %18, i64 1
  %21 = load i8, ptr %20, align 1
  %22 = icmp eq i8 %21, 0
  %23 = select i1 %22, i32 2, i32 1
  br label %.tail

.tail:                                            ; preds = %sub_0, %sub_1
  %. = phi i32 [ 1, %sub_0 ], [ %23, %sub_1 ]
  %24 = tail call ptr @PQgetvalue(ptr noundef %5, i32 noundef %.02732, i32 noundef 3) #10
  %25 = load i8, ptr %24, align 1
  switch i8 %25, label %26 [
    i8 0, label %27
    i8 47, label %28
  ]

26:                                               ; preds = %.tail
  br label %28

27:                                               ; preds = %.tail
  br label %28

28:                                               ; preds = %27, %.tail, %26
  %.0 = phi i32 [ 2, %26 ], [ 3, %.tail ], [ %., %27 ]
  tail call void %1(ptr noundef %15, i32 noundef %.0, i64 noundef %17, ptr noundef nonnull %24) #10
  br label %29

29:                                               ; preds = %.lr.ph, %28
  %30 = add nuw nsw i32 %.02732, 1
  %31 = tail call i32 @PQntuples(ptr noundef %5) #10
  %32 = icmp slt i32 %30, %31
  br i1 %32, label %.lr.ph, label %._crit_edge, !llvm.loop !4

._crit_edge:                                      ; preds = %29, %.preheader
  tail call void @PQclear(ptr noundef %5) #10
  ret void
}